target datalayout = "e-m:e-p270:32:32-p271:32:32-p272:64:64-i64:64-i128:128-f80:128-n8:16:32:64-S128"
target triple = "x86_64-pc-linux-gnu"

%"class.btConvexHullInternal::Int128" = type { i64, i64 }
%"class.btConvexHullInternal::Rational128" = type <{ %"class.btConvexHullInternal::Int128", %"class.btConvexHullInternal::Int128", i32, i8, [3 x i8] }>

; Function Attrs: mustprogress nounwind uwtable
define linkonce_odr dso_local noundef i32 @_ZNK20btConvexHullInternal6Int1284ucmpERKS0_(ptr noundef nonnull align 8 dereferenceable(16) %0, ptr noundef nonnull align 8 dereferenceable(16) %1) #1 comdat align 2 {
  %3 = alloca i32, align 4
  %4 = alloca ptr, align 8
  %5 = alloca ptr, align 8
  store ptr %0, ptr %4, align 8, !tbaa !12
  store ptr %1, ptr %5, align 8, !tbaa !12
  %6 = load ptr, ptr %4, align 8
  %7 = getelementptr inbounds nuw %"class.btConvexHullInternal::Int128", ptr %6, i32 0, i32 1
  %8 = load i64, ptr %7, align 8, !tbaa !16
  %9 = load ptr, ptr %5, align 8, !tbaa !12
  %10 = getelementptr inbounds nuw %"class.btConvexHullInternal::Int128", ptr %9, i32 0, i32 1
  %11 = load i64, ptr %10, align 8, !tbaa !16
  %12 = icmp ult i64 %8, %11
  br i1 %12, label %13, label %14

13:                                               ; preds = %2
  store i32 -1, ptr %3, align 4
  br label %39

14:                                               ; preds = %2
  %15 = getelementptr inbounds nuw %"class.btConvexHullInternal::Int128", ptr %6, i32 0, i32 1
  %16 = load i64, ptr %15, align 8, !tbaa !16
  %17 = load ptr, ptr %5, align 8, !tbaa !12
  %18 = getelementptr inbounds nuw %"class.btConvexHullInternal::Int128", ptr %17, i32 0, i32 1
  %19 = load i64, ptr %18, align 8, !tbaa !16
  %20 = icmp ugt i64 %16, %19
  br i1 %20, label %21, label %22

21:                                               ; preds = %14
  store i32 1, ptr %3, align 4
  br label %39

22:                                               ; preds = %14
  %23 = getelementptr inbounds nuw %"class.btConvexHullInternal::Int128", ptr %6, i32 0, i32 0
  %24 = load i64, ptr %23, align 8, !tbaa !23
  %25 = load ptr, ptr %5, align 8, !tbaa !12
  %26 = getelementptr inbounds nuw %"class.btConvexHullInternal::Int128", ptr %25, i32 0, i32 0
  %27 = load i64, ptr %26, align 8, !tbaa !23
  %28 = icmp ult i64 %24, %27
  br i1 %28, label %29, label %30

29:                                               ; preds = %22
  store i32 -1, ptr %3, align 4
  br label %39

30:                                               ; preds = %22
  %31 = getelementptr inbounds nuw %"class.btConvexHullInternal::Int128", ptr %6, i32 0, i32 0
  %32 = load i64, ptr %31, align 8, !tbaa !23
  %33 = load ptr, ptr %5, align 8, !tbaa !12
  %34 = getelementptr inbounds nuw %"class.btConvexHullInternal::Int128", ptr %33, i32 0, i32 0
  %35 = load i64, ptr %34, align 8, !tbaa !23
  %36 = icmp ugt i64 %32, %35
  br i1 %36, label %37, label %38

37:                                               ; preds = %30
  store i32 1, ptr %3, align 4
  br label %39

38:                                               ; preds = %30
  store i32 0, ptr %3, align 4
  br label %39

39:                                               ; preds = %38, %37, %29, %21, %13
  %40 = load i32, ptr %3, align 4
  ret i32 %40
}

; Function Attrs: mustprogress nounwind uwtable
define linkonce_odr dso_local void @_ZN20btConvexHullInternal6Int128C2Ev(ptr noundef nonnull align 8 dereferenceable(16) %0) unnamed_addr #1 comdat align 2 {
  %2 = alloca ptr, align 8
  store ptr %0, ptr %2, align 8, !tbaa !12
  ret void
}

; Function Attrs: mustprogress uwtable
define dso_local noundef i32 @_ZNK20btConvexHullInternal11Rational1287compareERKS0_(ptr noundef nonnull align 8 dereferenceable(37) %0, ptr noundef nonnull align 8 dereferenceable(37) %1) #2 align 2 {
  %3 = alloca i32, align 4
  %4 = alloca ptr, align 8
  %5 = alloca ptr, align 8
  %6 = alloca %"class.btConvexHullInternal::Int128", align 8
  %7 = alloca %"class.btConvexHullInternal::Int128", align 8
  %8 = alloca %"class.btConvexHullInternal::Int128", align 8
  %9 = alloca %"class.btConvexHullInternal::Int128", align 8
  %10 = alloca %"class.btConvexHullInternal::Int128", align 8
  %11 = alloca %"class.btConvexHullInternal::Int128", align 8
  %12 = alloca %"class.btConvexHullInternal::Int128", align 8
  %13 = alloca %"class.btConvexHullInternal::Int128", align 8
  %14 = alloca i32, align 4
  %15 = alloca i32, align 4
  store ptr %0, ptr %4, align 8, !tbaa !32
  store ptr %1, ptr %5, align 8, !tbaa !32
  %16 = load ptr, ptr %4, align 8
  %17 = getelementptr inbounds nuw %"class.btConvexHullInternal::Rational128", ptr %16, i32 0, i32 2
  %18 = load i32, ptr %17, align 8, !tbaa !34
  %19 = load ptr, ptr %5, align 8, !tbaa !32
  %20 = getelementptr inbounds nuw %"class.btConvexHullInternal::Rational128", ptr %19, i32 0, i32 2
  %21 = load i32, ptr %20, align 8, !tbaa !34
  %22 = icmp ne i32 %18, %21
  br i1 %22, label %23, label %30

23:                                               ; preds = %2
  %24 = getelementptr inbounds nuw %"class.btConvexHullInternal::Rational128", ptr %16, i32 0, i32 2
  %25 = load i32, ptr %24, align 8, !tbaa !34
  %26 = load ptr, ptr %5, align 8, !tbaa !32
  %27 = getelementptr inbounds nuw %"class.btConvexHullInternal::Rational128", ptr %26, i32 0, i32 2
  %28 = load i32, ptr %27, align 8, !tbaa !34
  %29 = sub nsw i32 %25, %28
  store i32 %29, ptr %3, align 4
  br label %88

30:                                               ; preds = %2
  %31 = getelementptr inbounds nuw %"class.btConvexHullInternal::Rational128", ptr %16, i32 0, i32 2
  %32 = load i32, ptr %31, align 8, !tbaa !34
  %33 = icmp eq i32 %32, 0
  br i1 %33, label %34, label %35

34:                                               ; preds = %30
  store i32 0, ptr %3, align 4
  br label %88

35:                                               ; preds = %30
  br label %36

36:                                               ; preds = %35
  %37 = getelementptr inbounds nuw %"class.btConvexHullInternal::Rational128", ptr %16, i32 0, i32 3
  %38 = load i8, ptr %37, align 4, !tbaa !36, !range !20, !noundef !21
  %39 = trunc i8 %38 to i1
  br i1 %39, label %40, label %51

40:                                               ; preds = %36
  %41 = load ptr, ptr %5, align 8, !tbaa !32
  %42 = getelementptr inbounds nuw %"class.btConvexHullInternal::Rational128", ptr %16, i32 0, i32 2
  %43 = load i32, ptr %42, align 8, !tbaa !34
  %44 = sext i32 %43 to i64
  %45 = getelementptr inbounds nuw %"class.btConvexHullInternal::Rational128", ptr %16, i32 0, i32 0
  %46 = getelementptr inbounds nuw %"class.btConvexHullInternal::Int128", ptr %45, i32 0, i32 0
  %47 = load i64, ptr %46, align 8, !tbaa !37
  %48 = mul nsw i64 %44, %47
  %49 = call noundef i32 @_ZNK20btConvexHullInternal11Rational1287compareEl(ptr noundef nonnull align 8 dereferenceable(37) %41, i64 noundef %48)
  %50 = sub nsw i32 0, %49
  store i32 %50, ptr %3, align 4
  br label %88

51:                                               ; preds = %36
  call void @llvm.lifetime.start.p0(i64 16, ptr %6) #13
  call void @_ZN20btConvexHullInternal6Int128C2Ev(ptr noundef nonnull align 8 dereferenceable(16) %6)
  call void @llvm.lifetime.start.p0(i64 16, ptr %7) #13
  call void @_ZN20btConvexHullInternal6Int128C2Ev(ptr noundef nonnull align 8 dereferenceable(16) %7)
  call void @llvm.lifetime.start.p0(i64 16, ptr %8) #13
  call void @_ZN20btConvexHullInternal6Int128C2Ev(ptr noundef nonnull align 8 dereferenceable(16) %8)
  call void @llvm.lifetime.start.p0(i64 16, ptr %9) #13
  call void @_ZN20btConvexHullInternal6Int128C2Ev(ptr noundef nonnull align 8 dereferenceable(16) %9)
  %52 = getelementptr inbounds nuw %"class.btConvexHullInternal::Rational128", ptr %16, i32 0, i32 0
  call void @llvm.memcpy.p0.p0.i64(ptr align 8 %10, ptr align 8 %52, i64 16, i1 false), !tbaa.struct !22
  %53 = load ptr, ptr %5, align 8, !tbaa !32
  %54 = getelementptr inbounds nuw %"class.btConvexHullInternal::Rational128", ptr %53, i32 0, i32 1
  call void @llvm.memcpy.p0.p0.i64(ptr align 8 %11, ptr align 8 %54, i64 16, i1 false), !tbaa.struct !22
  %55 = getelementptr inbounds nuw { i64, i64 }, ptr %10, i32 0, i32 0
  %56 = load i64, ptr %55, align 8
  %57 = getelementptr inbounds nuw { i64, i64 }, ptr %10, i32 0, i32 1
  %58 = load i64, ptr %57, align 8
  %59 = getelementptr inbounds nuw { i64, i64 }, ptr %11, i32 0, i32 0
  %60 = load i64, ptr %59, align 8
  %61 = getelementptr inbounds nuw { i64, i64 }, ptr %11, i32 0, i32 1
  %62 = load i64, ptr %61, align 8
  call void @_ZN20btConvexHullInternal4DMulINS_6Int128EmE3mulES1_S1_RS1_S3_(i64 %56, i64 %58, i64 %60, i64 %62, ptr noundef nonnull align 8 dereferenceable(16) %6, ptr noundef nonnull align 8 dereferenceable(16) %7)
  %63 = getelementptr inbounds nuw %"class.btConvexHullInternal::Rational128", ptr %16, i32 0, i32 1
  call void @llvm.memcpy.p0.p0.i64(ptr align 8 %12, ptr align 8 %63, i64 16, i1 false), !tbaa.struct !22
  %64 = load ptr, ptr %5, align 8, !tbaa !32
  %65 = getelementptr inbounds nuw %"class.btConvexHullInternal::Rational128", ptr %64, i32 0, i32 0
  call void @llvm.memcpy.p0.p0.i64(ptr align 8 %13, ptr align 8 %65, i64 16, i1 false), !tbaa.struct !22
  %66 = getelementptr inbounds nuw { i64, i64 }, ptr %12, i32 0, i32 0
  %67 = load i64, ptr %66, align 8
  %68 = getelementptr inbounds nuw { i64, i64 }, ptr %12, i32 0, i32 1
  %69 = load i64, ptr %68, align 8
  %70 = getelementptr inbounds nuw { i64, i64 }, ptr %13, i32 0, i32 0
  %71 = load i64, ptr %70, align 8
  %72 = getelementptr inbounds nuw { i64, i64 }, ptr %13, i32 0, i32 1
  %73 = load i64, ptr %72, align 8
  call void @_ZN20btConvexHullInternal4DMulINS_6Int128EmE3mulES1_S1_RS1_S3_(i64 %67, i64 %69, i64 %71, i64 %73, ptr noundef nonnull align 8 dereferenceable(16) %8, ptr noundef nonnull align 8 dereferenceable(16) %9)
  call void @llvm.lifetime.start.p0(i64 4, ptr %14) #13
  %74 = call noundef i32 @_ZNK20btConvexHullInternal6Int1284ucmpERKS0_(ptr noundef nonnull align 8 dereferenceable(16) %7, ptr noundef nonnull align 8 dereferenceable(16) %9)
  store i32 %74, ptr %14, align 4, !tbaa !9
  %75 = load i32, ptr %14, align 4, !tbaa !9
  %76 = icmp ne i32 %75, 0
  br i1 %76, label %77, label %82

77:                                               ; preds = %51
  %78 = load i32, ptr %14, align 4, !tbaa !9
  %79 = getelementptr inbounds nuw %"class.btConvexHullInternal::Rational128", ptr %16, i32 0, i32 2
  %80 = load i32, ptr %79, align 8, !tbaa !34
  %81 = mul nsw i32 %78, %80
  store i32 %81, ptr %3, align 4
  store i32 1, ptr %15, align 4
  br label %87

82:                                               ; preds = %51
  %83 = call noundef i32 @_ZNK20btConvexHullInternal6Int1284ucmpERKS0_(ptr noundef nonnull align 8 dereferenceable(16) %6, ptr noundef nonnull align 8 dereferenceable(16) %8)
  %84 = getelementptr inbounds nuw %"class.btConvexHullInternal::Rational128", ptr %16, i32 0, i32 2
  %85 = load i32, ptr %84, align 8, !tbaa !34
  %86 = mul nsw i32 %83, %85
  store i32 %86, ptr %3, align 4
  store i32 1, ptr %15, align 4
  br label %87

87:                                               ; preds = %82, %77
  call void @llvm.lifetime.end.p0(i64 4, ptr %14) #13
  call void @llvm.lifetime.end.p0(i64 16, ptr %9) #13
  call void @llvm.lifetime.end.p0(i64 16, ptr %8) #13
  call void @llvm.lifetime.end.p0(i64 16, ptr %7) #13
  call void @llvm.lifetime.end.p0(i64 16, ptr %6) #13
  br label %88

88:                                               ; preds = %87, %40, %34, %23
  %89 = load i32, ptr %3, align 4
  ret i32 %89
}